target datalayout = "e-m:e-p270:32:32-p271:32:32-p272:64:64-i64:64-i128:128-f80:128-n8:16:32:64-S128"
target triple = "x86_64-pc-linux-gnu"

%"class.llvm::RegionInfoBase" = type { ptr, ptr, ptr, ptr, ptr, %"class.llvm::DenseMap" }
%"class.llvm::DenseMap" = type <{ ptr, i32, i32, i32, [4 x i8] }>
%"class.llvm::MachineFunctionPass" = type { %"class.llvm::FunctionPass.base", %"class.llvm::MachineFunctionProperties", %"class.llvm::MachineFunctionProperties", %"class.llvm::MachineFunctionProperties" }
%"class.llvm::FunctionPass.base" = type { %"class.llvm::Pass.base" }
%"class.llvm::Pass.base" = type <{ ptr, ptr, ptr, i32 }>
%"class.llvm::MachineFunctionProperties" = type { %"class.std::bitset" }
%"class.std::bitset" = type { %"struct.std::_Base_bitset" }
%"struct.std::_Base_bitset" = type { i64 }
%"class.llvm::MachineRegionInfoPass" = type { %"class.llvm::MachineFunctionPass", %"class.llvm::MachineRegionInfo" }
%"class.llvm::MachineRegionInfo" = type { %"class.llvm::RegionInfoBase" }

@_ZN4llvm14RegionInfoBaseINS_12RegionTraitsINS_15MachineFunctionEEEE16VerifyRegionInfoE = weak_odr global i8 0, comdat, align 1

; Function Attrs: mustprogress nounwind uwtable
define weak_odr void @_ZNK4llvm14RegionInfoBaseINS_12RegionTraitsINS_15MachineFunctionEEEE14verifyAnalysisEv(ptr noundef nonnull align 8 dereferenceable(64) %0) #1 comdat align 2 {
  %2 = alloca ptr, align 8
  store ptr %0, ptr %2, align 8
  %3 = load ptr, ptr %2, align 8
  %4 = load i8, ptr @_ZN4llvm14RegionInfoBaseINS_12RegionTraitsINS_15MachineFunctionEEEE16VerifyRegionInfoE, align 1
  %5 = trunc i8 %4 to i1
  br i1 %5, label %7, label %6

6:                                                ; preds = %1
  br label %12

7:                                                ; preds = %1
  %8 = getelementptr inbounds nuw %"class.llvm::RegionInfoBase", ptr %3, i32 0, i32 4
  %9 = load ptr, ptr %8, align 8
  call void @_ZNK4llvm10RegionBaseINS_12RegionTraitsINS_15MachineFunctionEEEE16verifyRegionNestEv(ptr noundef nonnull align 8 dereferenceable(112) %9)
  %10 = getelementptr inbounds nuw %"class.llvm::RegionInfoBase", ptr %3, i32 0, i32 4
  %11 = load ptr, ptr %10, align 8
  call void @_ZNK4llvm14RegionInfoBaseINS_12RegionTraitsINS_15MachineFunctionEEEE11verifyBBMapEPKNS_13MachineRegionE(ptr noundef nonnull align 8 dereferenceable(64) %3, ptr noundef %11)
  br label %12

12:                                               ; preds = %7, %6
  ret void
}

; Function Attrs: mustprogress nounwind uwtable
define dso_local void @_ZNK4llvm21MachineRegionInfoPass14verifyAnalysisEv(ptr noundef nonnull align 8 dereferenceable(120) %0) unnamed_addr #1 align 2 {
  %2 = alloca ptr, align 8
  store ptr %0, ptr %2, align 8
  %3 = load ptr, ptr %2, align 8
  %4 = load i8, ptr @_ZN4llvm14RegionInfoBaseINS_12RegionTraitsINS_15MachineFunctionEEEE16VerifyRegionInfoE, align 1
  %5 = trunc i8 %4 to i1
  br i1 %5, label %6, label %8

6:                                                ; preds = %1
  %7 = getelementptr inbounds nuw %"class.llvm::MachineRegionInfoPass", ptr %3, i32 0, i32 1
  call void @_ZNK4llvm14RegionInfoBaseINS_12RegionTraitsINS_15MachineFunctionEEEE14verifyAnalysisEv(ptr noundef nonnull align 8 dereferenceable(64) %7)
  br label %8

8:                                                ; preds = %6, %1
  ret void
}