; Function Attrs: mustprogress nounwind uwtable
define dso_local void @_ZNK4llvm21MachineRegionInfoPass14verifyAnalysisEv(ptr noundef nonnull align 8 dereferenceable(120) %0) unnamed_addr #0 align 2 {
  %2 = load i8, ptr @_ZN4llvm14RegionInfoBaseINS_12RegionTraitsINS_15MachineFunctionEEEE16VerifyRegionInfoE, align 1
  %3 = trunc i8 %2 to i1
  br i1 %3, label %_ZNK4llvm14RegionInfoBaseINS_12RegionTraitsINS_15MachineFunctionEEEE14verifyAnalysisEv.exit, label %8

_ZNK4llvm14RegionInfoBaseINS_12RegionTraitsINS_15MachineFunctionEEEE14verifyAnalysisEv.exit: ; preds = %1
  %4 = getelementptr inbounds nuw i8, ptr %0, i64 56
  %5 = getelementptr inbounds i8, ptr %0, i64 88
  %6 = load ptr, ptr %5, align 8
  tail call void @_ZNK4llvm10RegionBaseINS_12RegionTraitsINS_15MachineFunctionEEEE16verifyRegionNestEv(ptr noundef nonnull align 8 dereferenceable(112) %6)
  %7 = load ptr, ptr %5, align 8
  tail call void @_ZNK4llvm14RegionInfoBaseINS_12RegionTraitsINS_15MachineFunctionEEEE11verifyBBMapEPKNS_13MachineRegionE(ptr noundef nonnull align 8 dereferenceable(64) %4, ptr noundef %7)
  br label %8

8:                                                ; preds = %_ZNK4llvm14RegionInfoBaseINS_12RegionTraitsINS_15MachineFunctionEEEE14verifyAnalysisEv.exit, %1
  ret void
}